target datalayout = "e-m:e-p270:32:32-p271:32:32-p272:64:64-i64:64-i128:128-f80:128-n8:16:32:64-S128"
target triple = "x86_64-pc-linux-gnu"

@.str.1614 = private unnamed_addr constant [20 x i8] c"RxLev < -110dBm (0)\00", align 1
@.str.1615 = private unnamed_addr constant [21 x i8] c"RxLev >= -48dBm (63)\00", align 1
@.str.1616 = private unnamed_addr constant [28 x i8] c"%ddBm <= RxLev < %ddBm (%u)\00", align 1

; Function Attrs: null_pointer_is_valid sspstrong uwtable
define internal void @ulp_NMRelement_rxLev_fmt(ptr noundef %0, i32 noundef %1) #0 {
  %3 = alloca ptr, align 8
  %4 = alloca i32, align 4
  store ptr %0, ptr %3, align 8
  store i32 %1, ptr %4, align 4
  %5 = load i32, ptr %4, align 4
  %6 = icmp eq i32 %5, 0
  br i1 %6, label %7, label %12

7:                                                ; preds = %2
  %8 = load ptr, ptr %3, align 8
  %9 = load ptr, ptr %3, align 8
  %10 = call i64 @llvm.objectsize.i64.p0(ptr %9, i1 false, i1 true, i1 true)
  %11 = call i32 (ptr, i64, i32, i64, ptr, ...) @__snprintf_chk(ptr noundef %8, i64 noundef 240, i32 noundef 2, i64 noundef %10, ptr noundef @.str.1614)
  br label %31

12:                                               ; preds = %2
  %13 = load i32, ptr %4, align 4
  %14 = icmp eq i32 %13, 63
  br i1 %14, label %15, label %20

15:                                               ; preds = %12
  %16 = load ptr, ptr %3, align 8
  %17 = load ptr, ptr %3, align 8
  %18 = call i64 @llvm.objectsize.i64.p0(ptr %17, i1 false, i1 true, i1 true)
  %19 = call i32 (ptr, i64, i32, i64, ptr, ...) @__snprintf_chk(ptr noundef %16, i64 noundef 240, i32 noundef 2, i64 noundef %18, ptr noundef @.str.1615)
  br label %30

20:                                               ; preds = %12
  %21 = load ptr, ptr %3, align 8
  %22 = load ptr, ptr %3, align 8
  %23 = call i64 @llvm.objectsize.i64.p0(ptr %22, i1 false, i1 true, i1 true)
  %24 = load i32, ptr %4, align 4
  %25 = add i32 -111, %24
  %26 = load i32, ptr %4, align 4
  %27 = add i32 -110, %26
  %28 = load i32, ptr %4, align 4
  %29 = call i32 (ptr, i64, i32, i64, ptr, ...) @__snprintf_chk(ptr noundef %21, i64 noundef 240, i32 noundef 2, i64 noundef %23, ptr noundef @.str.1616, i32 noundef %25, i32 noundef %27, i32 noundef %28)
  br label %30

30:                                               ; preds = %20, %15
  br label %31

31:                                               ; preds = %30, %7
  ret void
}