; Function Attrs: nofree null_pointer_is_valid sspstrong uwtable
define internal void @ulp_NMRelement_rxLev_fmt(ptr noundef %0, i32 noundef %1) #1 {
  switch i32 %1, label %7 [
    i32 0, label %3
    i32 63, label %5
  ]

3:                                                ; preds = %2
  %4 = tail call i32 (ptr, i64, i32, i64, ptr, ...) @__snprintf_chk(ptr noundef %0, i64 noundef 240, i32 noundef 2, i64 noundef -1, ptr noundef nonnull @.str.1614)
  br label %11

5:                                                ; preds = %2
  %6 = tail call i32 (ptr, i64, i32, i64, ptr, ...) @__snprintf_chk(ptr noundef %0, i64 noundef 240, i32 noundef 2, i64 noundef -1, ptr noundef nonnull @.str.1615)
  br label %11

7:                                                ; preds = %2
  %8 = add i32 %1, -111
  %9 = add i32 %1, -110
  %10 = tail call i32 (ptr, i64, i32, i64, ptr, ...) @__snprintf_chk(ptr noundef %0, i64 noundef 240, i32 noundef 2, i64 noundef -1, ptr noundef nonnull @.str.1616, i32 noundef %8, i32 noundef %9, i32 noundef %1)
  br label %11

11:                                               ; preds = %5, %7, %3
  ret void
}